target datalayout = "e-m:e-p270:32:32-p271:32:32-p272:64:64-i64:64-i128:128-f80:128-n8:16:32:64-S128"
target triple = "x86_64-pc-linux-gnu"

%union.pthread_mutex_t = type { %struct.__pthread_mutex_s }
%struct.__pthread_mutex_s = type { i32, i32, i32, i32, i32, i16, i16, %struct.__pthread_internal_list }
%struct.__pthread_internal_list = type { ptr, ptr }
%union.pthread_cond_t = type { %struct.__pthread_cond_s }
%struct.__pthread_cond_s = type { %union.__atomic_wide_counter, %union.__atomic_wide_counter, [2 x i32], [2 x i32], i32, i32, [2 x i32] }
%union.__atomic_wide_counter = type { i64 }
%struct.jobqueue = type { %union.pthread_mutex_t, ptr, ptr, ptr, i32 }
%struct.job = type { ptr, ptr, ptr }
%struct.bsem = type { %union.pthread_mutex_t, %union.pthread_cond_t, i32 }

@.str.7 = private unnamed_addr constant [55 x i8] c"jobqueue_pull: Thread %ld pulled last job from queue.\0A\00", align 1
@.str.8 = private unnamed_addr constant [52 x i8] c"jobqueue_pull: Thread %ld pulled a job from queue.\0A\00", align 1

; Function Attrs: nounwind uwtable
define internal void @bsem_post(ptr noundef %0) #0 {
  %2 = alloca ptr, align 8
  store ptr %0, ptr %2, align 8
  %3 = load ptr, ptr %2, align 8
  %4 = getelementptr inbounds %struct.bsem, ptr %3, i32 0, i32 0
  %5 = call i32 @pthread_mutex_lock(ptr noundef %4) #8
  %6 = load ptr, ptr %2, align 8
  %7 = getelementptr inbounds %struct.bsem, ptr %6, i32 0, i32 2
  store i32 1, ptr %7, align 8
  %8 = load ptr, ptr %2, align 8
  %9 = getelementptr inbounds %struct.bsem, ptr %8, i32 0, i32 1
  %10 = call i32 @pthread_cond_signal(ptr noundef %9) #8
  %11 = load ptr, ptr %2, align 8
  %12 = getelementptr inbounds %struct.bsem, ptr %11, i32 0, i32 0
  %13 = call i32 @pthread_mutex_unlock(ptr noundef %12) #8
  ret void
}

; Function Attrs: nounwind uwtable
define internal ptr @jobqueue_pull(ptr noundef %0) #0 {
  %2 = alloca ptr, align 8
  %3 = alloca ptr, align 8
  store ptr %0, ptr %2, align 8
  %4 = load ptr, ptr %2, align 8
  %5 = getelementptr inbounds %struct.jobqueue, ptr %4, i32 0, i32 0
  %6 = call i32 @pthread_mutex_lock(ptr noundef %5) #8
  %7 = load ptr, ptr %2, align 8
  %8 = getelementptr inbounds %struct.jobqueue, ptr %7, i32 0, i32 1
  %9 = load ptr, ptr %8, align 8
  store ptr %9, ptr %3, align 8
  %10 = load ptr, ptr %2, align 8
  %11 = getelementptr inbounds %struct.jobqueue, ptr %10, i32 0, i32 4
  %12 = load i32, ptr %11, align 8
  switch i32 %12, label %23 [
    i32 0, label %13
    i32 1, label %14
  ]

13:                                               ; preds = %1
  br label %38

14:                                               ; preds = %1
  %15 = call i64 (i64, ...) @syscall(i64 noundef 186) #8
  %16 = call i32 (i32, ptr, ...) @logg(i32 noundef 3, ptr noundef @.str.7, i64 noundef %15)
  %17 = load ptr, ptr %2, align 8
  %18 = getelementptr inbounds %struct.jobqueue, ptr %17, i32 0, i32 1
  store ptr null, ptr %18, align 8
  %19 = load ptr, ptr %2, align 8
  %20 = getelementptr inbounds %struct.jobqueue, ptr %19, i32 0, i32 2
  store ptr null, ptr %20, align 8
  %21 = load ptr, ptr %2, align 8
  %22 = getelementptr inbounds %struct.jobqueue, ptr %21, i32 0, i32 4
  store i32 0, ptr %22, align 8
  br label %38

23:                                               ; preds = %1
  %24 = call i64 (i64, ...) @syscall(i64 noundef 186) #8
  %25 = call i32 (i32, ptr, ...) @logg(i32 noundef 3, ptr noundef @.str.8, i64 noundef %24)
  %26 = load ptr, ptr %3, align 8
  %27 = getelementptr inbounds %struct.job, ptr %26, i32 0, i32 0
  %28 = load ptr, ptr %27, align 8
  %29 = load ptr, ptr %2, align 8
  %30 = getelementptr inbounds %struct.jobqueue, ptr %29, i32 0, i32 1
  store ptr %28, ptr %30, align 8
  %31 = load ptr, ptr %2, align 8
  %32 = getelementptr inbounds %struct.jobqueue, ptr %31, i32 0, i32 4
  %33 = load i32, ptr %32, align 8
  %34 = add nsw i32 %33, -1
  store i32 %34, ptr %32, align 8
  %35 = load ptr, ptr %2, align 8
  %36 = getelementptr inbounds %struct.jobqueue, ptr %35, i32 0, i32 3
  %37 = load ptr, ptr %36, align 8
  call void @bsem_post(ptr noundef %37)
  br label %38

38:                                               ; preds = %23, %14, %13
  %39 = load ptr, ptr %2, align 8
  %40 = getelementptr inbounds %struct.jobqueue, ptr %39, i32 0, i32 0
  %41 = call i32 @pthread_mutex_unlock(ptr noundef %40) #8
  %42 = load ptr, ptr %3, align 8
  ret ptr %42
}