; Function Attrs: nounwind uwtable
define internal fastcc ptr @jobqueue_pull(ptr noundef %0) unnamed_addr #0 {
  %2 = tail call i32 @pthread_mutex_lock(ptr noundef %0) #14
  %3 = getelementptr inbounds i8, ptr %0, i64 40
  %4 = load ptr, ptr %3, align 8
  %5 = getelementptr inbounds i8, ptr %0, i64 64
  %6 = load i32, ptr %5, align 8
  switch i32 %6, label %10 [
    i32 0, label %23
    i32 1, label %7
  ]

7:                                                ; preds = %1
  %8 = tail call i64 (i64, ...) @syscall(i64 noundef 186) #14
  %9 = tail call i32 (i32, ptr, ...) @logg(i32 noundef 3, ptr noundef nonnull @.str.7, i64 noundef %8) #14
  store i32 0, ptr %5, align 8
  tail call void @llvm.memset.p0.i64(ptr noundef nonnull align 8 dereferenceable(16) %3, i8 0, i64 16, i1 false)
  br label %23

10:                                               ; preds = %1
  %11 = tail call i64 (i64, ...) @syscall(i64 noundef 186) #14
  %12 = tail call i32 (i32, ptr, ...) @logg(i32 noundef 3, ptr noundef nonnull @.str.8, i64 noundef %11) #14
  %13 = load ptr, ptr %4, align 8
  store ptr %13, ptr %3, align 8
  %14 = load i32, ptr %5, align 8
  %15 = add nsw i32 %14, -1
  store i32 %15, ptr %5, align 8
  %16 = getelementptr inbounds i8, ptr %0, i64 56
  %17 = load ptr, ptr %16, align 8
  %18 = tail call i32 @pthread_mutex_lock(ptr noundef %17) #14
  %19 = getelementptr inbounds i8, ptr %17, i64 88
  store i32 1, ptr %19, align 8
  %20 = getelementptr inbounds i8, ptr %17, i64 40
  %21 = tail call i32 @pthread_cond_signal(ptr noundef nonnull %20) #14
  %22 = tail call i32 @pthread_mutex_unlock(ptr noundef %17) #14
  br label %23

23:                                               ; preds = %1, %10, %7
  %24 = tail call i32 @pthread_mutex_unlock(ptr noundef nonnull %0) #14
  ret ptr %4
}